; Function Attrs: null_pointer_is_valid sspstrong uwtable
define noundef ptr @fvalue_from_literal(i32 noundef %0, ptr noundef %1, i1 noundef zeroext %2, ptr noundef %3) local_unnamed_addr #0 {
  %5 = tail call noalias dereferenceable_or_null(40) ptr @g_slice_alloc(i64 noundef 40) #10
  %6 = zext i32 %0 to i64
  %7 = getelementptr [48 x ptr], ptr @type_list, i64 0, i64 %6
  %8 = load ptr, ptr %7, align 8
  store ptr %8, ptr %5, align 8
  %9 = getelementptr inbounds nuw i8, ptr %8, i64 8
  %10 = load ptr, ptr %9, align 8
  %.not.i = icmp eq ptr %10, null
  br i1 %.not.i, label %fvalue_new.exit, label %11

11:                                               ; preds = %4
  tail call void %10(ptr noundef %5)
  %.pre = load ptr, ptr %5, align 8
  br label %fvalue_new.exit

fvalue_new.exit:                                  ; preds = %4, %11
  %12 = phi ptr [ %8, %4 ], [ %.pre, %11 ]
  %13 = getelementptr inbounds nuw i8, ptr %12, i64 32
  %14 = load ptr, ptr %13, align 8
  %.not = icmp eq ptr %14, null
  br i1 %.not, label %.critedge, label %15

15:                                               ; preds = %fvalue_new.exit
  %16 = tail call zeroext i1 %14(ptr noundef %5, ptr noundef %1, i1 noundef zeroext %2, ptr noundef %3)
  br i1 %16, label %17, label %.critedge

17:                                               ; preds = %15
  %.not21 = icmp eq ptr %3, null
  br i1 %.not21, label %33, label %18

18:                                               ; preds = %17
  store ptr null, ptr %3, align 8
  br label %33

.critedge:                                        ; preds = %fvalue_new.exit, %15
  %.not20 = icmp eq ptr %3, null
  br i1 %.not20, label %28, label %19

19:                                               ; preds = %.critedge
  %20 = load ptr, ptr %3, align 8
  %21 = icmp eq ptr %20, null
  br i1 %21, label %22, label %28

22:                                               ; preds = %19
  %23 = load ptr, ptr %7, align 8
  %24 = load i32, ptr %23, align 8
  %25 = icmp ult i32 %24, 48
  br i1 %25, label %switch.lookup, label %ftype_pretty_name.exit

switch.lookup:                                    ; preds = %22
  %26 = zext nneg i32 %24 to i64
  %switch.gep = getelementptr inbounds nuw [48 x ptr], ptr @switch.table.fvalue_from_floating, i64 0, i64 %26
  %switch.load = load ptr, ptr %switch.gep, align 8
  br label %ftype_pretty_name.exit

ftype_pretty_name.exit:                           ; preds = %switch.lookup, %22
  %.0.i = phi ptr [ @.str.3, %22 ], [ %switch.load, %switch.lookup ]
  %27 = tail call noalias ptr (ptr, ptr, ...) @wmem_strdup_printf(ptr noundef null, ptr noundef nonnull @.str.95, ptr noundef %1, ptr noundef nonnull %.0.i)
  store ptr %27, ptr %3, align 8
  br label %28

28:                                               ; preds = %.critedge, %19, %ftype_pretty_name.exit
  %29 = load ptr, ptr %5, align 8
  %30 = getelementptr inbounds nuw i8, ptr %29, i64 24
  %31 = load ptr, ptr %30, align 8
  %.not.i.i = icmp eq ptr %31, null
  br i1 %.not.i.i, label %fvalue_free.exit, label %32

32:                                               ; preds = %28
  tail call void %31(ptr noundef %5)
  br label %fvalue_free.exit

fvalue_free.exit:                                 ; preds = %28, %32
  tail call void @g_slice_free1(i64 noundef 40, ptr noundef %5)
  br label %33

33:                                               ; preds = %17, %18, %fvalue_free.exit
  %.017 = phi ptr [ null, %fvalue_free.exit ], [ %5, %18 ], [ %5, %17 ]
  ret ptr %.017
}